target datalayout = "e-m:e-p270:32:32-p271:32:32-p272:64:64-i64:64-i128:128-f80:128-n8:16:32:64-S128"
target triple = "x86_64-unknown-linux-gnu"

%"class.Assimp::ZipArchiveIOSystem::Implement" = type { ptr, %"class.std::map" }
%"class.std::map" = type { %"class.std::_Rb_tree" }
%"class.std::_Rb_tree" = type { %"struct.std::_Rb_tree<std::__cxx11::basic_string<char>, std::pair<const std::__cxx11::basic_string<char>, Assimp::ZipFileInfo>, std::_Select1st<std::pair<const std::__cxx11::basic_string<char>, Assimp::ZipFileInfo>>, std::less<std::__cxx11::basic_string<char>>>::_Rb_tree_impl" }
%"struct.std::_Rb_tree<std::__cxx11::basic_string<char>, std::pair<const std::__cxx11::basic_string<char>, Assimp::ZipFileInfo>, std::_Select1st<std::pair<const std::__cxx11::basic_string<char>, Assimp::ZipFileInfo>>, std::less<std::__cxx11::basic_string<char>>>::_Rb_tree_impl" = type { %"struct.std::_Rb_tree_key_compare", %"struct.std::_Rb_tree_header" }
%"struct.std::_Rb_tree_key_compare" = type { %"struct.std::less" }
%"struct.std::less" = type { i8 }
%"struct.std::_Rb_tree_header" = type { %"struct.std::_Rb_tree_node_base", i64 }
%"struct.std::_Rb_tree_node_base" = type { i32, ptr, ptr, ptr }

@.str.6 = private unnamed_addr constant [2 x i8] c"r\00", align 1
@_ZN6Assimp18ZipArchiveIOSystem9ImplementC1EPNS_8IOSystemEPKcS5_ = hidden unnamed_addr alias void (ptr, ptr, ptr, ptr), ptr @_ZN6Assimp18ZipArchiveIOSystem9ImplementC2EPNS_8IOSystemEPKcS5_
@_ZN6Assimp18ZipArchiveIOSystem9ImplementD1Ev = hidden unnamed_addr alias void (ptr), ptr @_ZN6Assimp18ZipArchiveIOSystem9ImplementD2Ev

; Function Attrs: mustprogress nounwind uwtable
define hidden noundef zeroext i1 @_ZNK6Assimp18ZipArchiveIOSystem9Implement6isOpenEv(ptr noundef nonnull align 8 dereferenceable(56) %this) #0 align 2 {
entry:
  %this.addr = alloca ptr, align 8
  store ptr %this, ptr %this.addr, align 8
  %this1 = load ptr, ptr %this.addr, align 8
  %m_ZipFileHandle = getelementptr inbounds %"class.Assimp::ZipArchiveIOSystem::Implement", ptr %this1, i32 0, i32 0
  %0 = load ptr, ptr %m_ZipFileHandle, align 8
  %cmp = icmp ne ptr %0, null
  ret i1 %cmp
}

; Function Attrs: mustprogress uwtable
define hidden noundef zeroext i1 @_ZN6Assimp18ZipArchiveIOSystem12isZipArchiveEPNS_8IOSystemEPKc(ptr noundef %pIOHandler, ptr noundef %pFilename) #2 align 2 {
entry:
  %pIOHandler.addr = alloca ptr, align 8
  %pFilename.addr = alloca ptr, align 8
  %tmp = alloca %"class.Assimp::ZipArchiveIOSystem::Implement", align 8
  store ptr %pIOHandler, ptr %pIOHandler.addr, align 8
  store ptr %pFilename, ptr %pFilename.addr, align 8
  %0 = load ptr, ptr %pIOHandler.addr, align 8
  %1 = load ptr, ptr %pFilename.addr, align 8
  call void @_ZN6Assimp18ZipArchiveIOSystem9ImplementC1EPNS_8IOSystemEPKcS5_(ptr noundef nonnull align 8 dereferenceable(56) %tmp, ptr noundef %0, ptr noundef %1, ptr noundef @.str.6)
  %call = call noundef zeroext i1 @_ZNK6Assimp18ZipArchiveIOSystem9Implement6isOpenEv(ptr noundef nonnull align 8 dereferenceable(56) %tmp)
  call void @_ZN6Assimp18ZipArchiveIOSystem9ImplementD1Ev(ptr noundef nonnull align 8 dereferenceable(56) %tmp) #9
  ret i1 %call
}