; Function Attrs: mustprogress uwtable
define hidden noundef zeroext i1 @_ZN6Assimp18ZipArchiveIOSystem12isZipArchiveEPNS_8IOSystemEPKc(ptr noundef %pIOHandler, ptr noundef %pFilename) local_unnamed_addr #2 align 2 personality ptr @__gxx_personality_v0 {
entry:
  %mapping.i = alloca %struct.zlib_filefunc_def_s, align 8
  %tmp = alloca %"class.Assimp::ZipArchiveIOSystem::Implement", align 8
  call void @llvm.lifetime.start.p0(i64 64, ptr nonnull %mapping.i)
  store ptr null, ptr %tmp, align 8
  %0 = getelementptr inbounds i8, ptr %tmp, i64 16
  store i32 0, ptr %0, align 8
  %_M_parent.i.i.i.i.i.i = getelementptr inbounds i8, ptr %tmp, i64 24
  store ptr null, ptr %_M_parent.i.i.i.i.i.i, align 8
  %_M_left.i.i.i.i.i.i = getelementptr inbounds i8, ptr %tmp, i64 32
  store ptr %0, ptr %_M_left.i.i.i.i.i.i, align 8
  %_M_right.i.i.i.i.i.i = getelementptr inbounds i8, ptr %tmp, i64 40
  store ptr %0, ptr %_M_right.i.i.i.i.i.i, align 8
  %_M_node_count.i.i.i.i.i.i = getelementptr inbounds i8, ptr %tmp, i64 48
  store i64 0, ptr %_M_node_count.i.i.i.i.i.i, align 8
  %1 = load i8, ptr %pFilename, align 1
  %cmp.i = icmp eq i8 %1, 0
  br i1 %cmp.i, label %_ZN6Assimp18ZipArchiveIOSystem9ImplementC2EPNS_8IOSystemEPKcS5_.exit.thread, label %if.end.i

_ZN6Assimp18ZipArchiveIOSystem9ImplementC2EPNS_8IOSystemEPKcS5_.exit.thread: ; preds = %entry
  call void @llvm.lifetime.end.p0(i64 64, ptr nonnull %mapping.i)
  br label %if.end.i3

if.end.i:                                         ; preds = %entry
  store ptr @_ZN6Assimp14IOSystem2Unzip4openEPvPKci, ptr %mapping.i, align 8, !alias.scope !23
  %zread_file.i.i = getelementptr inbounds i8, ptr %mapping.i, i64 8
  store ptr @_ZN6Assimp14IOSystem2Unzip4readEPvS1_S1_m, ptr %zread_file.i.i, align 8, !alias.scope !23
  %zwrite_file.i.i = getelementptr inbounds i8, ptr %mapping.i, i64 16
  store ptr @_ZN6Assimp14IOSystem2Unzip5writeEPvS1_PKvm, ptr %zwrite_file.i.i, align 8, !alias.scope !23
  %ztell_file.i.i = getelementptr inbounds i8, ptr %mapping.i, i64 24
  store ptr @_ZN6Assimp14IOSystem2Unzip4tellEPvS1_, ptr %ztell_file.i.i, align 8, !alias.scope !23
  %zseek_file.i.i = getelementptr inbounds i8, ptr %mapping.i, i64 32
  store ptr @_ZN6Assimp14IOSystem2Unzip4seekEPvS1_mi, ptr %zseek_file.i.i, align 8, !alias.scope !23
  %zclose_file.i.i = getelementptr inbounds i8, ptr %mapping.i, i64 40
  store ptr @_ZN6Assimp14IOSystem2Unzip5closeEPvS1_, ptr %zclose_file.i.i, align 8, !alias.scope !23
  %zerror_file.i.i = getelementptr inbounds i8, ptr %mapping.i, i64 48
  store ptr @_ZN6Assimp14IOSystem2Unzip9testerrorEPvS1_, ptr %zerror_file.i.i, align 8, !alias.scope !23
  %opaque.i.i = getelementptr inbounds i8, ptr %mapping.i, i64 56
  store ptr %pIOHandler, ptr %opaque.i.i, align 8, !alias.scope !23
  %call.i = invoke ptr @unzOpen2(ptr noundef nonnull %pFilename, ptr noundef nonnull %mapping.i)
          to label %_ZN6Assimp18ZipArchiveIOSystem9ImplementC2EPNS_8IOSystemEPKcS5_.exit unwind label %lpad.i

lpad.i:                                           ; preds = %if.end.i
  %2 = landingpad { ptr, i32 }
          cleanup
  %m_ArchiveMap.i = getelementptr inbounds i8, ptr %tmp, i64 8
  call void @_ZNSt3mapINSt7__cxx1112basic_stringIcSt11char_traitsIcESaIcEEEN6Assimp11ZipFileInfoESt4lessIS5_ESaISt4pairIKS5_S7_EEED2Ev(ptr noundef nonnull align 8 dereferenceable(48) %m_ArchiveMap.i) #28
  resume { ptr, i32 } %2

_ZN6Assimp18ZipArchiveIOSystem9ImplementC2EPNS_8IOSystemEPKcS5_.exit: ; preds = %if.end.i
  store ptr %call.i, ptr %tmp, align 8
  call void @llvm.lifetime.end.p0(i64 64, ptr nonnull %mapping.i)
  %cmp.not.i = icmp eq ptr %call.i, null
  br i1 %cmp.not.i, label %if.end.i3, label %if.then.i

if.then.i:                                        ; preds = %_ZN6Assimp18ZipArchiveIOSystem9ImplementC2EPNS_8IOSystemEPKcS5_.exit
  %call.i2 = invoke i32 @unzClose(ptr noundef nonnull %call.i)
          to label %if.end.i3 unwind label %terminate.lpad.i

if.end.i3:                                        ; preds = %_ZN6Assimp18ZipArchiveIOSystem9ImplementC2EPNS_8IOSystemEPKcS5_.exit.thread, %if.then.i, %_ZN6Assimp18ZipArchiveIOSystem9ImplementC2EPNS_8IOSystemEPKcS5_.exit
  %cmp.i1 = phi i1 [ false, %_ZN6Assimp18ZipArchiveIOSystem9ImplementC2EPNS_8IOSystemEPKcS5_.exit.thread ], [ true, %if.then.i ], [ false, %_ZN6Assimp18ZipArchiveIOSystem9ImplementC2EPNS_8IOSystemEPKcS5_.exit ]
  %m_ArchiveMap.i4 = getelementptr inbounds i8, ptr %tmp, i64 8
  %3 = load ptr, ptr %_M_parent.i.i.i.i.i.i, align 8
  invoke void @_ZNSt8_Rb_treeINSt7__cxx1112basic_stringIcSt11char_traitsIcESaIcEEESt4pairIKS5_N6Assimp11ZipFileInfoEESt10_Select1stISA_ESt4lessIS5_ESaISA_EE8_M_eraseEPSt13_Rb_tree_nodeISA_E(ptr noundef nonnull align 8 dereferenceable(48) %m_ArchiveMap.i4, ptr noundef %3)
          to label %_ZN6Assimp18ZipArchiveIOSystem9ImplementD2Ev.exit unwind label %terminate.lpad.i.i.i

terminate.lpad.i.i.i:                             ; preds = %if.end.i3
  %4 = landingpad { ptr, i32 }
          catch ptr null
  %5 = extractvalue { ptr, i32 } %4, 0
  call void @__clang_call_terminate(ptr %5) #27
  unreachable

terminate.lpad.i:                                 ; preds = %if.then.i
  %6 = landingpad { ptr, i32 }
          catch ptr null
  %7 = extractvalue { ptr, i32 } %6, 0
  call void @__clang_call_terminate(ptr %7) #27
  unreachable

_ZN6Assimp18ZipArchiveIOSystem9ImplementD2Ev.exit: ; preds = %if.end.i3
  ret i1 %cmp.i1
}